Certificate:
    Data:
        Version: 3 (0x2)
        Serial Number: 1 (0x1)
        Signature Algorithm: sha256WithRSAEncryption
        Issuer: O=Prizma, CN=Prizma CA
        Validity
            Not Before: Feb 12 17:17:10 2024 GMT
            Not After : Feb 11 17:17:10 2025 GMT
        Subject: O=Pantheon, CN=pantheon
        Subject Public Key Info:
            Public Key Algorithm: rsaEncryption
                RSA Public-Key: (2048 bit)
                Modulus:
                    00:ca:3e:31:76:39:bb:c3:87:fb:ec:d7:84:f7:79:
                    c9:f5:8b:b5:1e:0e:5c:8b:b4:f6:6a:69:eb:c5:be:
                    1d:ab:38:3e:96:f6:9f:85:5c:bf:80:1a:0c:4f:f1:
                    76:d9:82:b3:a3:57:71:41:f8:8b:1a:2e:18:00:89:
                    c7:f6:02:02:6e:37:f1:61:7c:b1:76:7f:95:e5:73:
                    49:6e:15:8b:5d:4c:f0:62:2e:75:c5:1d:d1:3d:e0:
                    b9:6e:fa:6f:62:bd:c7:ca:c1:06:2a:10:ff:cb:9e:
                    67:ca:53:8a:e5:04:fa:50:85:c0:09:6a:2f:a8:5b:
                    a3:84:be:2f:8f:e2:1f:4d:ee:f2:1b:14:83:ce:e9:
                    6c:24:b1:13:cc:09:e5:09:d9:1a:9b:03:da:bb:48:
                    74:bc:64:43:63:f7:8a:b5:7e:5d:0f:c8:c1:23:ac:
                    88:ad:da:fd:5b:3a:6f:88:c1:1e:7b:c5:10:1f:d7:
                    0b:f8:c4:ca:6d:cb:ea:53:ad:71:36:d1:4c:7b:10:
                    81:58:f2:f3:de:16:d3:50:54:f6:06:46:7f:8c:3d:
                    b0:02:8e:db:41:b4:61:de:34:8e:78:9f:e6:57:34:
                    0a:08:ee:6f:e7:bb:bc:e2:d6:11:60:63:cc:39:8a:
                    27:e8:fe:63:e9:10:0c:6f:00:f8:f3:54:da:08:49:
                    80:a7
                Exponent: 65537 (0x10001)
        X509v3 extensions:
            X509v3 Key Usage: critical
                Digital Signature, Key Encipherment
            X509v3 Extended Key Usage: 
                TLS Web Client Authentication
            X509v3 Subject Alternative Name: 
                DNS:pantheon.arcimedes.idf.il
    Signature Algorithm: sha256WithRSAEncryption
         62:5e:e6:93:08:91:ae:d1:42:35:d5:78:19:5f:6e:b5:e3:6b:
         a2:e2:30:f2:50:97:14:5f:a9:b0:99:c7:ec:c5:cc:13:84:dc:
         51:ae:cf:8d:31:b2:1b:b5:70:b8:95:82:36:44:b9:7e:84:b5:
         1e:d1:8f:c2:04:ff:38:07:19:d7:44:08:a8:06:c9:fe:0f:64:
         de:42:e9:d7:e9:b4:c0:40:e0:e5:b9:da:7b:06:b2:d8:c3:ac:
         0e:f5:3e:0f:d4:e6:05:24:ae:34:b8:83:e0:8e:b2:ac:b0:21:
         9b:11:eb:d0:39:9e:6e:f6:0b:59:7d:3e:c5:68:1b:21:c6:71:
         b8:fd:27:05:a9:01:9f:2e:60:d5:f4:53:23:22:a8:66:9c:64:
         68:77:15:e8:3e:c2:b5:f3:96:5f:bd:78:e3:49:0b:95:a4:2c:
         62:7c:49:cf:4a:59:b6:53:78:e8:04:d3:9c:1d:7d:1e:15:e5:
         81:8d:34:1d:ac:eb:38:30:bc:9f:ef:6b:b3:79:16:a2:8c:75:
         cb:d9:6b:d5:ee:f8:14:65:81:35:3b:37:3d:9c:28:0d:75:e9:
         a2:a8:aa:50:d2:c1:37:98:e3:9a:e0:e2:fb:aa:dc:63:44:63:
         c4:fc:dc:bc:fa:54:17:5a:95:ba:04:6d:46:6c:05:63:5c:d6:
         7a:39:3d:d6
-----BEGIN CERTIFICATE-----
MIIDEzCCAfugAwIBAgIBATANBgkqhkiG9w0BAQsFADAlMQ8wDQYDVQQKDAZQcml6
bWExEjAQBgNVBAMMCVByaXptYSBDQTAeFw0yNDAyMTIxNzE3MTBaFw0yNTAyMTEx
NzE3MTBaMCYxETAPBgNVBAoMCFBhbnRoZW9uMREwDwYDVQQDDAhwYW50aGVvbjCC
ASIwDQYJKoZIhvcNAQEBBQADggEPADCCAQoCggEBAMo+MXY5u8OH++zXhPd5yfWL
tR4OXIu09mpp68W+Has4Ppb2n4Vcv4AaDE/xdtmCs6NXcUH4ixouGACJx/YCAm43
8WF8sXZ/leVzSW4Vi11M8GIudcUd0T3guW76b2K9x8rBBioQ/8ueZ8pTiuUE+lCF
wAlqL6hbo4S+L4/iH03u8hsUg87pbCSxE8wJ5QnZGpsD2rtIdLxkQ2P3irV+XQ/I
wSOsiK3a/Vs6b4jBHnvFEB/XC/jEym3L6lOtcTbRTHsQgVjy894W01BU9gZGf4w9
sAKO20G0Yd40jnif5lc0Cgjub+e7vOLWEWBjzDmKJ+j+Y+kQDG8A+PNU2ghJgKcC
AwEAAaNNMEswDgYDVR0PAQH/BAQDAgWgMBMGA1UdJQQMMAoGCCsGAQUFBwMCMCQG
A1UdEQQdMBuCGXBhbnRoZW9uLmFyY2ltZWRlcy5pZGYuaWwwDQYJKoZIhvcNAQEL
BQADggEBAGJe5pMIka7RQjXVeBlfbrXja6LiMPJQlxRfqbCZx+zFzBOE3FGuz40x
shu1cLiVgjZEuX6EtR7Rj8IE/zgHGddECKgGyf4PZN5C6dfptMBA4OW52nsGstjD
rA71Pg/U5gUkrjS4g+COsqywIZsR69A5nm72C1l9PsVoGyHGcbj9JwWpAZ8uYNX0
UyMiqGacZGh3Feg+wrXzll+9eONJC5WkLGJ8Sc9KWbZTeOgE05wdfR4V5YGNNB2s
6zgwvJ/va7N5FqKMdcvZa9Xu+BRlgTU7Nz2cKA116aKoqlDSwTeY45rg4vuq3GNE
Y8T83Lz6VBdalboEbUZsBWNc1no5PdY=
-----END CERTIFICATE-----
